; Function Attrs: mustprogress nofree norecurse nosync nounwind willreturn memory(read, inaccessiblemem: none) uwtable
define dso_local noundef zeroext i1 @_ZN4Luau10isSubclassEPKNS_9ClassTypeES2_(ptr noundef readonly %0, ptr noundef readnone %1) local_unnamed_addr #21 {
  %.not7 = icmp eq ptr %0, null
  br i1 %.not7, label %._crit_edge, label %.lr.ph

.lr.ph:                                           ; preds = %2, %11
  %.068 = phi ptr [ %14, %11 ], [ %0, %2 ]
  %3 = icmp eq ptr %.068, %1
  br i1 %3, label %._crit_edge, label %4

4:                                                ; preds = %.lr.ph
  %5 = getelementptr inbounds nuw i8, ptr %.068, i64 88
  %6 = load i8, ptr %5, align 8, !tbaa !239, !range !119, !noundef !118
  %7 = trunc nuw i8 %6 to i1
  br i1 %7, label %8, label %._crit_edge

8:                                                ; preds = %4
  %9 = getelementptr inbounds nuw i8, ptr %.068, i64 80
  %10 = load ptr, ptr %9, align 8, !tbaa !10
  %.not.i.i = icmp eq ptr %10, null
  br i1 %.not.i.i, label %._crit_edge, label %11

11:                                               ; preds = %8
  %12 = load i32, ptr %10, align 8, !tbaa !8
  %13 = icmp eq i32 %12, 11
  %14 = getelementptr inbounds nuw i8, ptr %10, i64 8
  br i1 %13, label %.lr.ph, label %._crit_edge, !llvm.loop !375

._crit_edge:                                      ; preds = %8, %11, %.lr.ph, %4, %2
  %.0 = phi i1 [ false, %2 ], [ %3, %4 ], [ %3, %.lr.ph ], [ %3, %11 ], [ %3, %8 ]
  ret i1 %.0
}